target datalayout = "e-m:e-p270:32:32-p271:32:32-p272:64:64-i64:64-i128:128-f80:128-n8:16:32:64-S128"
target triple = "x86_64-pc-linux-gnu"

%struct.t_mat = type { i32, i32, ptr, i8, float, float, float, ptr, ptr }

; Function Attrs: mustprogress nounwind uwtable
define void @_Z9swap_rowsP5t_matii(ptr noundef %0, i32 noundef %1, i32 noundef %2) #2 {
  %4 = alloca ptr, align 8
  %5 = alloca i32, align 4
  %6 = alloca i32, align 4
  %7 = alloca ptr, align 8
  %8 = alloca float, align 4
  %9 = alloca i32, align 4
  %10 = alloca i32, align 4
  store ptr %0, ptr %4, align 8
  store i32 %1, ptr %5, align 4
  store i32 %2, ptr %6, align 4
  %11 = load ptr, ptr %4, align 8
  %12 = getelementptr inbounds %struct.t_mat, ptr %11, i32 0, i32 2
  %13 = load ptr, ptr %12, align 8
  %14 = load i32, ptr %5, align 4
  %15 = sext i32 %14 to i64
  %16 = getelementptr inbounds i32, ptr %13, i64 %15
  %17 = load i32, ptr %16, align 4
  store i32 %17, ptr %10, align 4
  %18 = load ptr, ptr %4, align 8
  %19 = getelementptr inbounds %struct.t_mat, ptr %18, i32 0, i32 2
  %20 = load ptr, ptr %19, align 8
  %21 = load i32, ptr %6, align 4
  %22 = sext i32 %21 to i64
  %23 = getelementptr inbounds i32, ptr %20, i64 %22
  %24 = load i32, ptr %23, align 4
  %25 = load ptr, ptr %4, align 8
  %26 = getelementptr inbounds %struct.t_mat, ptr %25, i32 0, i32 2
  %27 = load ptr, ptr %26, align 8
  %28 = load i32, ptr %5, align 4
  %29 = sext i32 %28 to i64
  %30 = getelementptr inbounds i32, ptr %27, i64 %29
  store i32 %24, ptr %30, align 4
  %31 = load i32, ptr %10, align 4
  %32 = load ptr, ptr %4, align 8
  %33 = getelementptr inbounds %struct.t_mat, ptr %32, i32 0, i32 2
  %34 = load ptr, ptr %33, align 8
  %35 = load i32, ptr %6, align 4
  %36 = sext i32 %35 to i64
  %37 = getelementptr inbounds i32, ptr %34, i64 %36
  store i32 %31, ptr %37, align 4
  %38 = load ptr, ptr %4, align 8
  %39 = getelementptr inbounds %struct.t_mat, ptr %38, i32 0, i32 8
  %40 = load ptr, ptr %39, align 8
  %41 = load i32, ptr %5, align 4
  %42 = sext i32 %41 to i64
  %43 = getelementptr inbounds ptr, ptr %40, i64 %42
  %44 = load ptr, ptr %43, align 8
  store ptr %44, ptr %7, align 8
  %45 = load ptr, ptr %4, align 8
  %46 = getelementptr inbounds %struct.t_mat, ptr %45, i32 0, i32 8
  %47 = load ptr, ptr %46, align 8
  %48 = load i32, ptr %6, align 4
  %49 = sext i32 %48 to i64
  %50 = getelementptr inbounds ptr, ptr %47, i64 %49
  %51 = load ptr, ptr %50, align 8
  %52 = load ptr, ptr %4, align 8
  %53 = getelementptr inbounds %struct.t_mat, ptr %52, i32 0, i32 8
  %54 = load ptr, ptr %53, align 8
  %55 = load i32, ptr %5, align 4
  %56 = sext i32 %55 to i64
  %57 = getelementptr inbounds ptr, ptr %54, i64 %56
  store ptr %51, ptr %57, align 8
  %58 = load ptr, ptr %7, align 8
  %59 = load ptr, ptr %4, align 8
  %60 = getelementptr inbounds %struct.t_mat, ptr %59, i32 0, i32 8
  %61 = load ptr, ptr %60, align 8
  %62 = load i32, ptr %6, align 4
  %63 = sext i32 %62 to i64
  %64 = getelementptr inbounds ptr, ptr %61, i64 %63
  store ptr %58, ptr %64, align 8
  store i32 0, ptr %9, align 4
  br label %65

65:                                               ; preds = %115, %3
  %66 = load i32, ptr %9, align 4
  %67 = load ptr, ptr %4, align 8
  %68 = getelementptr inbounds %struct.t_mat, ptr %67, i32 0, i32 1
  %69 = load i32, ptr %68, align 4
  %70 = icmp slt i32 %66, %69
  br i1 %70, label %71, label %118

71:                                               ; preds = %65
  %72 = load ptr, ptr %4, align 8
  %73 = getelementptr inbounds %struct.t_mat, ptr %72, i32 0, i32 8
  %74 = load ptr, ptr %73, align 8
  %75 = load i32, ptr %9, align 4
  %76 = sext i32 %75 to i64
  %77 = getelementptr inbounds ptr, ptr %74, i64 %76
  %78 = load ptr, ptr %77, align 8
  %79 = load i32, ptr %5, align 4
  %80 = sext i32 %79 to i64
  %81 = getelementptr inbounds float, ptr %78, i64 %80
  %82 = load float, ptr %81, align 4
  store float %82, ptr %8, align 4
  %83 = load ptr, ptr %4, align 8
  %84 = getelementptr inbounds %struct.t_mat, ptr %83, i32 0, i32 8
  %85 = load ptr, ptr %84, align 8
  %86 = load i32, ptr %9, align 4
  %87 = sext i32 %86 to i64
  %88 = getelementptr inbounds ptr, ptr %85, i64 %87
  %89 = load ptr, ptr %88, align 8
  %90 = load i32, ptr %6, align 4
  %91 = sext i32 %90 to i64
  %92 = getelementptr inbounds float, ptr %89, i64 %91
  %93 = load float, ptr %92, align 4
  %94 = load ptr, ptr %4, align 8
  %95 = getelementptr inbounds %struct.t_mat, ptr %94, i32 0, i32 8
  %96 = load ptr, ptr %95, align 8
  %97 = load i32, ptr %9, align 4
  %98 = sext i32 %97 to i64
  %99 = getelementptr inbounds ptr, ptr %96, i64 %98
  %100 = load ptr, ptr %99, align 8
  %101 = load i32, ptr %5, align 4
  %102 = sext i32 %101 to i64
  %103 = getelementptr inbounds float, ptr %100, i64 %102
  store float %93, ptr %103, align 4
  %104 = load float, ptr %8, align 4
  %105 = load ptr, ptr %4, align 8
  %106 = getelementptr inbounds %struct.t_mat, ptr %105, i32 0, i32 8
  %107 = load ptr, ptr %106, align 8
  %108 = load i32, ptr %9, align 4
  %109 = sext i32 %108 to i64
  %110 = getelementptr inbounds ptr, ptr %107, i64 %109
  %111 = load ptr, ptr %110, align 8
  %112 = load i32, ptr %6, align 4
  %113 = sext i32 %112 to i64
  %114 = getelementptr inbounds float, ptr %111, i64 %113
  store float %104, ptr %114, align 4
  br label %115

115:                                              ; preds = %71
  %116 = load i32, ptr %9, align 4
  %117 = add nsw i32 %116, 1
  store i32 %117, ptr %9, align 4
  br label %65, !llvm.loop !10

118:                                              ; preds = %65
  ret void
}