; Function Attrs: mustprogress nofree norecurse nosync nounwind memory(readwrite, inaccessiblemem: none) uwtable
define void @_Z9swap_rowsP5t_matii(ptr nocapture noundef readonly %0, i32 noundef %1, i32 noundef %2) local_unnamed_addr #7 {
  %4 = getelementptr inbounds i8, ptr %0, i64 8
  %5 = load ptr, ptr %4, align 8
  %6 = sext i32 %1 to i64
  %7 = getelementptr inbounds i32, ptr %5, i64 %6
  %8 = load i32, ptr %7, align 4
  %9 = sext i32 %2 to i64
  %10 = getelementptr inbounds i32, ptr %5, i64 %9
  %11 = load i32, ptr %10, align 4
  store i32 %11, ptr %7, align 4
  %12 = load ptr, ptr %4, align 8
  %13 = getelementptr inbounds i32, ptr %12, i64 %9
  store i32 %8, ptr %13, align 4
  %14 = getelementptr inbounds i8, ptr %0, i64 40
  %15 = load ptr, ptr %14, align 8
  %16 = getelementptr inbounds ptr, ptr %15, i64 %6
  %17 = load ptr, ptr %16, align 8
  %18 = getelementptr inbounds ptr, ptr %15, i64 %9
  %19 = load ptr, ptr %18, align 8
  store ptr %19, ptr %16, align 8
  %20 = load ptr, ptr %14, align 8
  %21 = getelementptr inbounds ptr, ptr %20, i64 %9
  store ptr %17, ptr %21, align 8
  %22 = getelementptr inbounds i8, ptr %0, i64 4
  %23 = load i32, ptr %22, align 4
  %24 = icmp sgt i32 %23, 0
  br i1 %24, label %.lr.ph, label %._crit_edge

.lr.ph:                                           ; preds = %3, %.lr.ph
  %indvars.iv = phi i64 [ %indvars.iv.next, %.lr.ph ], [ 0, %3 ]
  %25 = load ptr, ptr %14, align 8
  %26 = getelementptr inbounds ptr, ptr %25, i64 %indvars.iv
  %27 = load ptr, ptr %26, align 8
  %28 = getelementptr inbounds float, ptr %27, i64 %6
  %29 = load float, ptr %28, align 4
  %30 = getelementptr inbounds float, ptr %27, i64 %9
  %31 = load float, ptr %30, align 4
  store float %31, ptr %28, align 4
  %32 = load ptr, ptr %14, align 8
  %33 = getelementptr inbounds ptr, ptr %32, i64 %indvars.iv
  %34 = load ptr, ptr %33, align 8
  %35 = getelementptr inbounds float, ptr %34, i64 %9
  store float %29, ptr %35, align 4
  %indvars.iv.next = add nuw nsw i64 %indvars.iv, 1
  %36 = load i32, ptr %22, align 4
  %37 = sext i32 %36 to i64
  %38 = icmp slt i64 %indvars.iv.next, %37
  br i1 %38, label %.lr.ph, label %._crit_edge, !llvm.loop !10

._crit_edge:                                      ; preds = %.lr.ph, %3
  ret void
}